target datalayout = "e-m:e-p270:32:32-p271:32:32-p272:64:64-i64:64-i128:128-f80:128-n8:16:32:64-S128"
target triple = "x86_64-pc-linux-gnu"

%struct._packet_info = type { ptr, ptr, i32, i32, %struct.nstime_t, %struct.nstime_t, %struct.nstime_t, i8, ptr, ptr, ptr, ptr, %struct._address, %struct._address, %struct._address, %struct._address, %struct._address, %struct._address, i32, ptr, i8, [3 x i8], %struct.anon, i32, i32, i32, i32, ptr, i8, ptr, ptr, i16, i16, i32, i32, i16, i32, i32, ptr, ptr, ptr, i8, i8, i16, i16, i16, i32, i16, i16, ptr, ptr, ptr, ptr, ptr, i32, i32 }
%struct.nstime_t = type { i64, i32 }
%struct._address = type { i32, i32, ptr, ptr }
%struct.anon = type { i8, [3 x i8] }

@.str.39 = private unnamed_addr constant [24 x i8] c"BitTorrent DHT Protocol\00", align 1
@.str.40 = private unnamed_addr constant [7 x i8] c"BT-DHT\00", align 1
@.str.47 = private unnamed_addr constant [6 x i8] c"d1:ad\00", align 1
@.str.48 = private unnamed_addr constant [6 x i8] c"d1:rd\00", align 1
@.str.49 = private unnamed_addr constant [6 x i8] c"d2:ip\00", align 1
@.str.50 = private unnamed_addr constant [6 x i8] c"d1:el\00", align 1

; Function Attrs: null_pointer_is_valid sspstrong uwtable
define internal zeroext i1 @test_bt_dht(ptr noundef %0, ptr noundef %1, i32 noundef %2, ptr noundef %3) #0 {
  %5 = alloca i1, align 1
  %6 = alloca ptr, align 8
  %7 = alloca ptr, align 8
  %8 = alloca i32, align 4
  %9 = alloca ptr, align 8
  store ptr %0, ptr %6, align 8
  store ptr %1, ptr %7, align 8
  store i32 %2, ptr %8, align 4
  store ptr %3, ptr %9, align 8
  %10 = load ptr, ptr %7, align 8
  %11 = load i32, ptr %8, align 4
  %12 = call i32 @tvb_captured_length_remaining(ptr noundef %10, i32 noundef %11)
  %13 = icmp slt i32 %12, 5
  br i1 %13, label %14, label %15

14:                                               ; preds = %4
  store i1 false, ptr %5, align 1
  br label %43

15:                                               ; preds = %4
  %16 = load ptr, ptr %7, align 8
  %17 = load i32, ptr %8, align 4
  %18 = call i32 @tvb_memeql(ptr noundef %16, i32 noundef %17, ptr noundef @.str.47, i64 noundef 5)
  %19 = icmp eq i32 %18, 0
  br i1 %19, label %20, label %21

20:                                               ; preds = %15
  store i1 true, ptr %5, align 1
  br label %43

21:                                               ; preds = %15
  %22 = load ptr, ptr %7, align 8
  %23 = load i32, ptr %8, align 4
  %24 = call i32 @tvb_memeql(ptr noundef %22, i32 noundef %23, ptr noundef @.str.48, i64 noundef 5)
  %25 = icmp eq i32 %24, 0
  br i1 %25, label %26, label %27

26:                                               ; preds = %21
  store i1 true, ptr %5, align 1
  br label %43

27:                                               ; preds = %21
  %28 = load ptr, ptr %7, align 8
  %29 = load i32, ptr %8, align 4
  %30 = call i32 @tvb_memeql(ptr noundef %28, i32 noundef %29, ptr noundef @.str.49, i64 noundef 5)
  %31 = icmp eq i32 %30, 0
  br i1 %31, label %32, label %33

32:                                               ; preds = %27
  store i1 true, ptr %5, align 1
  br label %43

33:                                               ; preds = %27
  %34 = load ptr, ptr %7, align 8
  %35 = load i32, ptr %8, align 4
  %36 = call i32 @tvb_memeql(ptr noundef %34, i32 noundef %35, ptr noundef @.str.50, i64 noundef 5)
  %37 = icmp eq i32 %36, 0
  br i1 %37, label %38, label %39

38:                                               ; preds = %33
  store i1 true, ptr %5, align 1
  br label %43

39:                                               ; preds = %33
  br label %40

40:                                               ; preds = %39
  br label %41

41:                                               ; preds = %40
  br label %42

42:                                               ; preds = %41
  store i1 false, ptr %5, align 1
  br label %43

43:                                               ; preds = %42, %38, %32, %26, %20, %14
  %44 = load i1, ptr %5, align 1
  ret i1 %44
}

; Function Attrs: null_pointer_is_valid sspstrong uwtable
define internal i32 @dissect_bt_dht(ptr noundef %0, ptr noundef %1, ptr noundef %2, ptr noundef %3) #0 {
  %5 = alloca i32, align 4
  %6 = alloca ptr, align 8
  %7 = alloca ptr, align 8
  %8 = alloca ptr, align 8
  %9 = alloca ptr, align 8
  store ptr %0, ptr %6, align 8
  store ptr %1, ptr %7, align 8
  store ptr %2, ptr %8, align 8
  store ptr %3, ptr %9, align 8
  %10 = load ptr, ptr %7, align 8
  %11 = load ptr, ptr %6, align 8
  %12 = load ptr, ptr %9, align 8
  %13 = call zeroext i1 @test_bt_dht(ptr noundef %10, ptr noundef %11, i32 noundef 0, ptr noundef %12)
  br i1 %13, label %15, label %14

14:                                               ; preds = %4
  store i32 0, ptr %5, align 4
  br label %26

15:                                               ; preds = %4
  %16 = load ptr, ptr %7, align 8
  %17 = getelementptr inbounds nuw %struct._packet_info, ptr %16, i32 0, i32 1
  %18 = load ptr, ptr %17, align 8
  call void @col_set_str(ptr noundef %18, i32 noundef 35, ptr noundef @.str.40)
  %19 = load ptr, ptr %7, align 8
  %20 = getelementptr inbounds nuw %struct._packet_info, ptr %19, i32 0, i32 1
  %21 = load ptr, ptr %20, align 8
  call void @col_clear(ptr noundef %21, i32 noundef 25)
  %22 = load ptr, ptr %6, align 8
  %23 = load ptr, ptr %7, align 8
  %24 = load ptr, ptr %8, align 8
  %25 = call i32 @dissect_bencoded_dict(ptr noundef %22, ptr noundef %23, ptr noundef %24, i32 noundef 0, ptr noundef @.str.39)
  store i32 %25, ptr %5, align 4
  br label %26

26:                                               ; preds = %15, %14
  %27 = load i32, ptr %5, align 4
  ret i32 %27
}