; Function Attrs: null_pointer_is_valid sspstrong uwtable
define internal noundef i32 @dissect_bt_dht(ptr noundef %0, ptr noundef %1, ptr noundef %2, ptr readnone captures(none) %3) #0 {
  %5 = tail call i32 @tvb_captured_length_remaining(ptr noundef %0, i32 noundef 0)
  %6 = icmp slt i32 %5, 5
  br i1 %6, label %test_bt_dht.exit.thread9, label %7

7:                                                ; preds = %4
  %8 = tail call i32 @tvb_memeql(ptr noundef %0, i32 noundef 0, ptr noundef nonnull @.str.47, i64 noundef 5)
  %9 = icmp eq i32 %8, 0
  br i1 %9, label %test_bt_dht.exit.thread, label %10

10:                                               ; preds = %7
  %11 = tail call i32 @tvb_memeql(ptr noundef %0, i32 noundef 0, ptr noundef nonnull @.str.48, i64 noundef 5)
  %12 = icmp eq i32 %11, 0
  br i1 %12, label %test_bt_dht.exit.thread, label %13

13:                                               ; preds = %10
  %14 = tail call i32 @tvb_memeql(ptr noundef %0, i32 noundef 0, ptr noundef nonnull @.str.49, i64 noundef 5)
  %15 = icmp eq i32 %14, 0
  br i1 %15, label %test_bt_dht.exit.thread, label %test_bt_dht.exit

test_bt_dht.exit:                                 ; preds = %13
  %16 = tail call i32 @tvb_memeql(ptr noundef %0, i32 noundef 0, ptr noundef nonnull @.str.50, i64 noundef 5)
  %17 = icmp eq i32 %16, 0
  br i1 %17, label %test_bt_dht.exit.thread, label %test_bt_dht.exit.thread9

test_bt_dht.exit.thread:                          ; preds = %13, %10, %7, %test_bt_dht.exit
  %18 = getelementptr inbounds nuw i8, ptr %1, i64 8
  %19 = load ptr, ptr %18, align 8
  tail call void @col_set_str(ptr noundef %19, i32 noundef 35, ptr noundef nonnull @.str.40)
  %20 = load ptr, ptr %18, align 8
  tail call void @col_clear(ptr noundef %20, i32 noundef 25)
  %21 = tail call fastcc i32 @dissect_bencoded_dict(ptr noundef %0, ptr noundef %1, ptr noundef %2, i32 noundef 0, ptr noundef nonnull @.str.39)
  br label %test_bt_dht.exit.thread9

test_bt_dht.exit.thread9:                         ; preds = %4, %test_bt_dht.exit, %test_bt_dht.exit.thread
  %.0 = phi i32 [ %21, %test_bt_dht.exit.thread ], [ 0, %test_bt_dht.exit ], [ 0, %4 ]
  ret i32 %.0
}